target datalayout = "e-m:e-p270:32:32-p271:32:32-p272:64:64-i64:64-i128:128-f80:128-n8:16:32:64-S128"
target triple = "x86_64-pc-linux-gnu"

%"struct.icu_77::Edits::Iterator" = type <{ ptr, i32, i32, i32, i8, i8, i8, i8, i32, i32, i32, i32, i32, [4 x i8] }>

; Function Attrs: mustprogress nounwind uwtable
define noundef i32 @_ZN6icu_775Edits8Iterator10readLengthEi(ptr noundef nonnull align 8 dereferenceable(48) %0, i32 noundef %1) #0 align 2 {
  %3 = alloca i32, align 4
  %4 = alloca ptr, align 8
  %5 = alloca i32, align 4
  %6 = alloca i32, align 4
  store ptr %0, ptr %4, align 8, !tbaa !40
  store i32 %1, ptr %5, align 4, !tbaa !14
  %7 = load ptr, ptr %4, align 8
  %8 = load i32, ptr %5, align 4, !tbaa !14
  %9 = icmp slt i32 %8, 61
  br i1 %9, label %10, label %12

10:                                               ; preds = %2
  %11 = load i32, ptr %5, align 4, !tbaa !14
  store i32 %11, ptr %3, align 4
  br label %56

12:                                               ; preds = %2
  %13 = load i32, ptr %5, align 4, !tbaa !14
  %14 = icmp slt i32 %13, 62
  br i1 %14, label %15, label %26

15:                                               ; preds = %12
  %16 = getelementptr inbounds nuw %"struct.icu_77::Edits::Iterator", ptr %7, i32 0, i32 0
  %17 = load ptr, ptr %16, align 8, !tbaa !47
  %18 = getelementptr inbounds nuw %"struct.icu_77::Edits::Iterator", ptr %7, i32 0, i32 1
  %19 = load i32, ptr %18, align 8, !tbaa !48
  %20 = add nsw i32 %19, 1
  store i32 %20, ptr %18, align 8, !tbaa !48
  %21 = sext i32 %19 to i64
  %22 = getelementptr inbounds i16, ptr %17, i64 %21
  %23 = load i16, ptr %22, align 2, !tbaa !36
  %24 = zext i16 %23 to i32
  %25 = and i32 %24, 32767
  store i32 %25, ptr %3, align 4
  br label %56

26:                                               ; preds = %12
  call void @llvm.lifetime.start.p0(i64 4, ptr %6) #9
  %27 = load i32, ptr %5, align 4, !tbaa !14
  %28 = and i32 %27, 1
  %29 = shl i32 %28, 30
  %30 = getelementptr inbounds nuw %"struct.icu_77::Edits::Iterator", ptr %7, i32 0, i32 0
  %31 = load ptr, ptr %30, align 8, !tbaa !47
  %32 = getelementptr inbounds nuw %"struct.icu_77::Edits::Iterator", ptr %7, i32 0, i32 1
  %33 = load i32, ptr %32, align 8, !tbaa !48
  %34 = sext i32 %33 to i64
  %35 = getelementptr inbounds i16, ptr %31, i64 %34
  %36 = load i16, ptr %35, align 2, !tbaa !36
  %37 = zext i16 %36 to i32
  %38 = and i32 %37, 32767
  %39 = shl i32 %38, 15
  %40 = or i32 %29, %39
  %41 = getelementptr inbounds nuw %"struct.icu_77::Edits::Iterator", ptr %7, i32 0, i32 0
  %42 = load ptr, ptr %41, align 8, !tbaa !47
  %43 = getelementptr inbounds nuw %"struct.icu_77::Edits::Iterator", ptr %7, i32 0, i32 1
  %44 = load i32, ptr %43, align 8, !tbaa !48
  %45 = add nsw i32 %44, 1
  %46 = sext i32 %45 to i64
  %47 = getelementptr inbounds i16, ptr %42, i64 %46
  %48 = load i16, ptr %47, align 2, !tbaa !36
  %49 = zext i16 %48 to i32
  %50 = and i32 %49, 32767
  %51 = or i32 %40, %50
  store i32 %51, ptr %6, align 4, !tbaa !14
  %52 = getelementptr inbounds nuw %"struct.icu_77::Edits::Iterator", ptr %7, i32 0, i32 1
  %53 = load i32, ptr %52, align 8, !tbaa !48
  %54 = add nsw i32 %53, 2
  store i32 %54, ptr %52, align 8, !tbaa !48
  %55 = load i32, ptr %6, align 4, !tbaa !14
  store i32 %55, ptr %3, align 4
  call void @llvm.lifetime.end.p0(i64 4, ptr %6) #9
  br label %56

56:                                               ; preds = %26, %15, %10
  %57 = load i32, ptr %3, align 4
  ret i32 %57
}