; Function Attrs: mustprogress nofree norecurse nosync nounwind willreturn memory(read, argmem: readwrite, inaccessiblemem: none) uwtable
define noundef i32 @_ZN6icu_775Edits8Iterator10readLengthEi(ptr noundef nonnull align 8 captures(none) dereferenceable(48) %0, i32 noundef %1) local_unnamed_addr #12 align 2 {
  %3 = icmp slt i32 %1, 61
  br i1 %3, label %35, label %4

4:                                                ; preds = %2
  %5 = icmp eq i32 %1, 61
  br i1 %5, label %6, label %16

6:                                                ; preds = %4
  %7 = load ptr, ptr %0, align 8, !tbaa !39
  %8 = getelementptr inbounds nuw i8, ptr %0, i64 8
  %9 = load i32, ptr %8, align 8, !tbaa !40
  %10 = add nsw i32 %9, 1
  store i32 %10, ptr %8, align 8, !tbaa !40
  %11 = sext i32 %9 to i64
  %12 = getelementptr inbounds i16, ptr %7, i64 %11
  %13 = load i16, ptr %12, align 2, !tbaa !23
  %14 = and i16 %13, 32767
  %15 = zext nneg i16 %14 to i32
  br label %35

16:                                               ; preds = %4
  %17 = shl i32 %1, 30
  %18 = and i32 %17, 1073741824
  %19 = load ptr, ptr %0, align 8, !tbaa !39
  %20 = getelementptr inbounds nuw i8, ptr %0, i64 8
  %21 = load i32, ptr %20, align 8, !tbaa !40
  %22 = sext i32 %21 to i64
  %23 = getelementptr inbounds i16, ptr %19, i64 %22
  %24 = load i16, ptr %23, align 2, !tbaa !23
  %25 = and i16 %24, 32767
  %26 = zext nneg i16 %25 to i32
  %27 = shl nuw nsw i32 %26, 15
  %28 = or disjoint i32 %27, %18
  %29 = getelementptr i8, ptr %23, i64 2
  %30 = load i16, ptr %29, align 2, !tbaa !23
  %31 = and i16 %30, 32767
  %32 = zext nneg i16 %31 to i32
  %33 = or disjoint i32 %28, %32
  %34 = add nsw i32 %21, 2
  store i32 %34, ptr %20, align 8, !tbaa !40
  br label %35

35:                                               ; preds = %2, %16, %6
  %.0 = phi i32 [ %15, %6 ], [ %33, %16 ], [ %1, %2 ]
  ret i32 %.0
}